target datalayout = "e-m:e-p270:32:32-p271:32:32-p272:64:64-i64:64-i128:128-f80:128-n8:16:32:64-S128"
target triple = "x86_64-pc-linux-gnu"

%struct.Ifd_Man_t_ = type { ptr, i32, i32, ptr, ptr, ptr, ptr, ptr, ptr, ptr }
%struct.Vec_Int_t_ = type { i32, i32, ptr }

; Function Attrs: inlinehint nounwind uwtable
define internal i32 @Vec_IntSize(ptr noundef %0) #3 {
  %2 = alloca ptr, align 8
  store ptr %0, ptr %2, align 8, !tbaa !28
  %3 = load ptr, ptr %2, align 8, !tbaa !28
  %4 = getelementptr inbounds nuw %struct.Vec_Int_t_, ptr %3, i32 0, i32 1
  %5 = load i32, ptr %4, align 4, !tbaa !29
  ret i32 %5
}

; Function Attrs: inlinehint nounwind uwtable
define internal i32 @Vec_IntEntry(ptr noundef %0, i32 noundef %1) #3 {
  %3 = alloca ptr, align 8
  %4 = alloca i32, align 4
  store ptr %0, ptr %3, align 8, !tbaa !28
  store i32 %1, ptr %4, align 4, !tbaa !24
  %5 = load ptr, ptr %3, align 8, !tbaa !28
  %6 = getelementptr inbounds nuw %struct.Vec_Int_t_, ptr %5, i32 0, i32 2
  %7 = load ptr, ptr %6, align 8, !tbaa !33
  %8 = load i32, ptr %4, align 4, !tbaa !24
  %9 = sext i32 %8 to i64
  %10 = getelementptr inbounds i32, ptr %7, i64 %9
  %11 = load i32, ptr %10, align 4, !tbaa !24
  ret i32 %11
}

; Function Attrs: inlinehint nounwind uwtable
define internal void @Vec_IntSort(ptr noundef %0, i32 noundef %1) #3 {
  %3 = alloca ptr, align 8
  %4 = alloca i32, align 4
  store ptr %0, ptr %3, align 8, !tbaa !28
  store i32 %1, ptr %4, align 4, !tbaa !24
  %5 = load i32, ptr %4, align 4, !tbaa !24
  %6 = icmp ne i32 %5, 0
  br i1 %6, label %7, label %15

7:                                                ; preds = %2
  %8 = load ptr, ptr %3, align 8, !tbaa !28
  %9 = getelementptr inbounds nuw %struct.Vec_Int_t_, ptr %8, i32 0, i32 2
  %10 = load ptr, ptr %9, align 8, !tbaa !33
  %11 = load ptr, ptr %3, align 8, !tbaa !28
  %12 = getelementptr inbounds nuw %struct.Vec_Int_t_, ptr %11, i32 0, i32 1
  %13 = load i32, ptr %12, align 4, !tbaa !29
  %14 = sext i32 %13 to i64
  call void @qsort(ptr noundef %10, i64 noundef %14, i64 noundef 4, ptr noundef @Vec_IntSortCompare2)
  br label %23

15:                                               ; preds = %2
  %16 = load ptr, ptr %3, align 8, !tbaa !28
  %17 = getelementptr inbounds nuw %struct.Vec_Int_t_, ptr %16, i32 0, i32 2
  %18 = load ptr, ptr %17, align 8, !tbaa !33
  %19 = load ptr, ptr %3, align 8, !tbaa !28
  %20 = getelementptr inbounds nuw %struct.Vec_Int_t_, ptr %19, i32 0, i32 1
  %21 = load i32, ptr %20, align 4, !tbaa !29
  %22 = sext i32 %21 to i64
  call void @qsort(ptr noundef %18, i64 noundef %22, i64 noundef 4, ptr noundef @Vec_IntSortCompare1)
  br label %23

23:                                               ; preds = %15, %7
  ret void
}

; Function Attrs: inlinehint nounwind uwtable
define internal void @Vec_IntClear(ptr noundef %0) #3 {
  %2 = alloca ptr, align 8
  store ptr %0, ptr %2, align 8, !tbaa !28
  %3 = load ptr, ptr %2, align 8, !tbaa !28
  %4 = getelementptr inbounds nuw %struct.Vec_Int_t_, ptr %3, i32 0, i32 1
  store i32 0, ptr %4, align 4, !tbaa !29
  ret void
}

; Function Attrs: inlinehint nounwind uwtable
define internal i32 @Abc_Var2Lit(i32 noundef %0, i32 noundef %1) #3 {
  %3 = alloca i32, align 4
  %4 = alloca i32, align 4
  store i32 %0, ptr %3, align 4, !tbaa !24
  store i32 %1, ptr %4, align 4, !tbaa !24
  %5 = load i32, ptr %3, align 4, !tbaa !24
  %6 = load i32, ptr %3, align 4, !tbaa !24
  %7 = add nsw i32 %5, %6
  %8 = load i32, ptr %4, align 4, !tbaa !24
  %9 = add nsw i32 %7, %8
  ret i32 %9
}

; Function Attrs: inlinehint nounwind uwtable
define internal i32 @Abc_LitNot(i32 noundef %0) #3 {
  %2 = alloca i32, align 4
  store i32 %0, ptr %2, align 4, !tbaa !24
  %3 = load i32, ptr %2, align 4, !tbaa !24
  %4 = xor i32 %3, 1
  ret i32 %4
}

; Function Attrs: inlinehint nounwind uwtable
define internal i32 @Abc_LitIsCompl(i32 noundef %0) #3 {
  %2 = alloca i32, align 4
  store i32 %0, ptr %2, align 4, !tbaa !24
  %3 = load i32, ptr %2, align 4, !tbaa !24
  %4 = and i32 %3, 1
  ret i32 %4
}

; Function Attrs: inlinehint nounwind uwtable
define internal i32 @Abc_LitNotCond(i32 noundef %0, i32 noundef %1) #3 {
  %3 = alloca i32, align 4
  %4 = alloca i32, align 4
  store i32 %0, ptr %3, align 4, !tbaa !24
  store i32 %1, ptr %4, align 4, !tbaa !24
  %5 = load i32, ptr %3, align 4, !tbaa !24
  %6 = load i32, ptr %4, align 4, !tbaa !24
  %7 = icmp sgt i32 %6, 0
  %8 = zext i1 %7 to i32
  %9 = xor i32 %5, %8
  ret i32 %9
}

; Function Attrs: nounwind uwtable
define i32 @Ifd_ManOper(ptr noundef %0, i32 noundef %1, i32 noundef %2, i32 noundef %3, i32 noundef %4) #0 {
  %6 = alloca i32, align 4
  %7 = alloca ptr, align 8
  %8 = alloca i32, align 4
  %9 = alloca i32, align 4
  %10 = alloca i32, align 4
  %11 = alloca i32, align 4
  %12 = alloca i32, align 4
  %13 = alloca i32, align 4
  %14 = alloca i32, align 4
  %15 = alloca i32, align 4
  %16 = alloca i32, align 4
  %17 = alloca i32, align 4
  %18 = alloca i32, align 4
  store ptr %0, ptr %7, align 8, !tbaa !3
  store i32 %1, ptr %8, align 4, !tbaa !24
  store i32 %2, ptr %9, align 4, !tbaa !24
  store i32 %3, ptr %10, align 4, !tbaa !24
  store i32 %4, ptr %11, align 4, !tbaa !24
  call void @llvm.lifetime.start.p0(i64 4, ptr %12) #12
  call void @llvm.lifetime.start.p0(i64 4, ptr %13) #12
  call void @llvm.lifetime.start.p0(i64 4, ptr %14) #12
  call void @llvm.lifetime.start.p0(i64 4, ptr %15) #12
  call void @llvm.lifetime.start.p0(i64 4, ptr %16) #12
  store i32 0, ptr %16, align 4, !tbaa !24
  %19 = load i32, ptr %11, align 4, !tbaa !24
  %20 = icmp eq i32 %19, 1
  br i1 %20, label %21, label %44

21:                                               ; preds = %5
  %22 = load i32, ptr %8, align 4, !tbaa !24
  %23 = icmp eq i32 %22, 0
  br i1 %23, label %27, label %24

24:                                               ; preds = %21
  %25 = load i32, ptr %9, align 4, !tbaa !24
  %26 = icmp eq i32 %25, 0
  br i1 %26, label %27, label %28

27:                                               ; preds = %24, %21
  store i32 0, ptr %6, align 4
  store i32 1, ptr %17, align 4
  br label %172

28:                                               ; preds = %24
  %29 = load i32, ptr %8, align 4, !tbaa !24
  %30 = icmp eq i32 %29, 1
  br i1 %30, label %34, label %31

31:                                               ; preds = %28
  %32 = load i32, ptr %9, align 4, !tbaa !24
  %33 = icmp eq i32 %32, 1
  br i1 %33, label %34, label %43

34:                                               ; preds = %31, %28
  %35 = load i32, ptr %8, align 4, !tbaa !24
  %36 = icmp eq i32 %35, 1
  br i1 %36, label %37, label %39

37:                                               ; preds = %34
  %38 = load i32, ptr %9, align 4, !tbaa !24
  br label %41

39:                                               ; preds = %34
  %40 = load i32, ptr %8, align 4, !tbaa !24
  br label %41

41:                                               ; preds = %39, %37
  %42 = phi i32 [ %38, %37 ], [ %40, %39 ]
  store i32 %42, ptr %6, align 4
  store i32 1, ptr %17, align 4
  br label %172

43:                                               ; preds = %31
  br label %107

44:                                               ; preds = %5
  %45 = load i32, ptr %11, align 4, !tbaa !24
  %46 = icmp eq i32 %45, 2
  br i1 %46, label %47, label %80

47:                                               ; preds = %44
  %48 = load i32, ptr %8, align 4, !tbaa !24
  %49 = icmp slt i32 %48, 2
  br i1 %49, label %50, label %54

50:                                               ; preds = %47
  %51 = load i32, ptr %9, align 4, !tbaa !24
  %52 = load i32, ptr %8, align 4, !tbaa !24
  %53 = call i32 @Abc_LitNotCond(i32 noundef %51, i32 noundef %52)
  store i32 %53, ptr %6, align 4
  store i32 1, ptr %17, align 4
  br label %172

54:                                               ; preds = %47
  %55 = load i32, ptr %9, align 4, !tbaa !24
  %56 = icmp slt i32 %55, 2
  br i1 %56, label %57, label %61

57:                                               ; preds = %54
  %58 = load i32, ptr %8, align 4, !tbaa !24
  %59 = load i32, ptr %9, align 4, !tbaa !24
  %60 = call i32 @Abc_LitNotCond(i32 noundef %58, i32 noundef %59)
  store i32 %60, ptr %6, align 4
  store i32 1, ptr %17, align 4
  br label %172

61:                                               ; preds = %54
  %62 = load i32, ptr %8, align 4, !tbaa !24
  %63 = call i32 @Abc_LitIsCompl(i32 noundef %62)
  %64 = icmp ne i32 %63, 0
  br i1 %64, label %65, label %70

65:                                               ; preds = %61
  %66 = load i32, ptr %16, align 4, !tbaa !24
  %67 = xor i32 %66, 1
  store i32 %67, ptr %16, align 4, !tbaa !24
  %68 = load i32, ptr %8, align 4, !tbaa !24
  %69 = call i32 @Abc_LitNot(i32 noundef %68)
  store i32 %69, ptr %8, align 4, !tbaa !24
  br label %70

70:                                               ; preds = %65, %61
  %71 = load i32, ptr %9, align 4, !tbaa !24
  %72 = call i32 @Abc_LitIsCompl(i32 noundef %71)
  %73 = icmp ne i32 %72, 0
  br i1 %73, label %74, label %79

74:                                               ; preds = %70
  %75 = load i32, ptr %16, align 4, !tbaa !24
  %76 = xor i32 %75, 1
  store i32 %76, ptr %16, align 4, !tbaa !24
  %77 = load i32, ptr %9, align 4, !tbaa !24
  %78 = call i32 @Abc_LitNot(i32 noundef %77)
  store i32 %78, ptr %9, align 4, !tbaa !24
  br label %79

79:                                               ; preds = %74, %70
  br label %106

80:                                               ; preds = %44
  %81 = load i32, ptr %11, align 4, !tbaa !24
  %82 = icmp eq i32 %81, 3
  br i1 %82, label %83, label %105

83:                                               ; preds = %80
  %84 = load i32, ptr %10, align 4, !tbaa !24
  %85 = call i32 @Abc_LitIsCompl(i32 noundef %84)
  %86 = icmp ne i32 %85, 0
  br i1 %86, label %87, label %93

87:                                               ; preds = %83
  call void @llvm.lifetime.start.p0(i64 4, ptr %18) #12
  %88 = load i32, ptr %8, align 4, !tbaa !24
  store i32 %88, ptr %18, align 4, !tbaa !24
  %89 = load i32, ptr %9, align 4, !tbaa !24
  store i32 %89, ptr %8, align 4, !tbaa !24
  %90 = load i32, ptr %18, align 4, !tbaa !24
  store i32 %90, ptr %9, align 4, !tbaa !24
  call void @llvm.lifetime.end.p0(i64 4, ptr %18) #12
  %91 = load i32, ptr %10, align 4, !tbaa !24
  %92 = call i32 @Abc_LitNot(i32 noundef %91)
  store i32 %92, ptr %10, align 4, !tbaa !24
  br label %93

93:                                               ; preds = %87, %83
  %94 = load i32, ptr %9, align 4, !tbaa !24
  %95 = call i32 @Abc_LitIsCompl(i32 noundef %94)
  %96 = icmp ne i32 %95, 0
  br i1 %96, label %97, label %104

97:                                               ; preds = %93
  %98 = load i32, ptr %16, align 4, !tbaa !24
  %99 = xor i32 %98, 1
  store i32 %99, ptr %16, align 4, !tbaa !24
  %100 = load i32, ptr %8, align 4, !tbaa !24
  %101 = call i32 @Abc_LitNot(i32 noundef %100)
  store i32 %101, ptr %8, align 4, !tbaa !24
  %102 = load i32, ptr %9, align 4, !tbaa !24
  %103 = call i32 @Abc_LitNot(i32 noundef %102)
  store i32 %103, ptr %9, align 4, !tbaa !24
  br label %104

104:                                              ; preds = %97, %93
  br label %105

105:                                              ; preds = %104, %80
  br label %106

106:                                              ; preds = %105, %79
  br label %107

107:                                              ; preds = %106, %43
  %108 = load i32, ptr %11, align 4, !tbaa !24
  %109 = icmp eq i32 %108, 3
  br i1 %109, label %110, label %120

110:                                              ; preds = %107
  %111 = load ptr, ptr %7, align 8, !tbaa !3
  %112 = load i32, ptr %8, align 4, !tbaa !24
  %113 = load i32, ptr %9, align 4, !tbaa !24
  %114 = load i32, ptr %10, align 4, !tbaa !24
  %115 = load i32, ptr %11, align 4, !tbaa !24
  %116 = call i32 @Ifd_ManHashFindOrAdd(ptr noundef %111, i32 noundef %112, i32 noundef %113, i32 noundef %114, i32 noundef %115)
  store i32 %116, ptr %15, align 4, !tbaa !24
  %117 = load i32, ptr %15, align 4, !tbaa !24
  %118 = load i32, ptr %16, align 4, !tbaa !24
  %119 = call i32 @Abc_Var2Lit(i32 noundef %117, i32 noundef %118)
  store i32 %119, ptr %6, align 4
  store i32 1, ptr %17, align 4
  br label %172

120:                                              ; preds = %107
  %121 = load ptr, ptr %7, align 8, !tbaa !3
  %122 = getelementptr inbounds nuw %struct.Ifd_Man_t_, ptr %121, i32 0, i32 9
  %123 = load ptr, ptr %122, align 8, !tbaa !21
  call void @Vec_IntClear(ptr noundef %123)
  %124 = load ptr, ptr %7, align 8, !tbaa !3
  %125 = load i32, ptr %8, align 4, !tbaa !24
  %126 = load i32, ptr %11, align 4, !tbaa !24
  %127 = load ptr, ptr %7, align 8, !tbaa !3
  %128 = getelementptr inbounds nuw %struct.Ifd_Man_t_, ptr %127, i32 0, i32 9
  %129 = load ptr, ptr %128, align 8, !tbaa !21
  call void @Ifd_ManOperSuper_rec(ptr noundef %124, i32 noundef %125, i32 noundef %126, ptr noundef %129)
  %130 = load ptr, ptr %7, align 8, !tbaa !3
  %131 = load i32, ptr %9, align 4, !tbaa !24
  %132 = load i32, ptr %11, align 4, !tbaa !24
  %133 = load ptr, ptr %7, align 8, !tbaa !3
  %134 = getelementptr inbounds nuw %struct.Ifd_Man_t_, ptr %133, i32 0, i32 9
  %135 = load ptr, ptr %134, align 8, !tbaa !21
  call void @Ifd_ManOperSuper_rec(ptr noundef %130, i32 noundef %131, i32 noundef %132, ptr noundef %135)
  %136 = load ptr, ptr %7, align 8, !tbaa !3
  %137 = getelementptr inbounds nuw %struct.Ifd_Man_t_, ptr %136, i32 0, i32 9
  %138 = load ptr, ptr %137, align 8, !tbaa !21
  call void @Vec_IntSort(ptr noundef %138, i32 noundef 1)
  %139 = load ptr, ptr %7, align 8, !tbaa !3
  %140 = getelementptr inbounds nuw %struct.Ifd_Man_t_, ptr %139, i32 0, i32 9
  %141 = load ptr, ptr %140, align 8, !tbaa !21
  %142 = call i32 @Vec_IntEntry(ptr noundef %141, i32 noundef 0)
  store i32 %142, ptr %13, align 4, !tbaa !24
  store i32 1, ptr %12, align 4, !tbaa !24
  br label %143

143:                                              ; preds = %165, %120
  %144 = load i32, ptr %12, align 4, !tbaa !24
  %145 = load ptr, ptr %7, align 8, !tbaa !3
  %146 = getelementptr inbounds nuw %struct.Ifd_Man_t_, ptr %145, i32 0, i32 9
  %147 = load ptr, ptr %146, align 8, !tbaa !21
  %148 = call i32 @Vec_IntSize(ptr noundef %147)
  %149 = icmp slt i32 %144, %148
  br i1 %149, label %150, label %156

150:                                              ; preds = %143
  %151 = load ptr, ptr %7, align 8, !tbaa !3
  %152 = getelementptr inbounds nuw %struct.Ifd_Man_t_, ptr %151, i32 0, i32 9
  %153 = load ptr, ptr %152, align 8, !tbaa !21
  %154 = load i32, ptr %12, align 4, !tbaa !24
  %155 = call i32 @Vec_IntEntry(ptr noundef %153, i32 noundef %154)
  store i32 %155, ptr %14, align 4, !tbaa !24
  br label %156

156:                                              ; preds = %150, %143
  %157 = phi i1 [ false, %143 ], [ true, %150 ]
  br i1 %157, label %158, label %168

158:                                              ; preds = %156
  %159 = load ptr, ptr %7, align 8, !tbaa !3
  %160 = load i32, ptr %13, align 4, !tbaa !24
  %161 = load i32, ptr %14, align 4, !tbaa !24
  %162 = load i32, ptr %11, align 4, !tbaa !24
  %163 = call i32 @Ifd_ManHashFindOrAdd(ptr noundef %159, i32 noundef %160, i32 noundef %161, i32 noundef -1, i32 noundef %162)
  %164 = call i32 @Abc_Var2Lit(i32 noundef %163, i32 noundef 0)
  store i32 %164, ptr %13, align 4, !tbaa !24
  br label %165

165:                                              ; preds = %158
  %166 = load i32, ptr %12, align 4, !tbaa !24
  %167 = add nsw i32 %166, 1
  store i32 %167, ptr %12, align 4, !tbaa !24
  br label %143, !llvm.loop !79

168:                                              ; preds = %156
  %169 = load i32, ptr %13, align 4, !tbaa !24
  %170 = load i32, ptr %16, align 4, !tbaa !24
  %171 = call i32 @Abc_LitNotCond(i32 noundef %169, i32 noundef %170)
  store i32 %171, ptr %6, align 4
  store i32 1, ptr %17, align 4
  br label %172

172:                                              ; preds = %168, %110, %57, %50, %41, %27
  call void @llvm.lifetime.end.p0(i64 4, ptr %16) #12
  call void @llvm.lifetime.end.p0(i64 4, ptr %15) #12
  call void @llvm.lifetime.end.p0(i64 4, ptr %14) #12
  call void @llvm.lifetime.end.p0(i64 4, ptr %13) #12
  call void @llvm.lifetime.end.p0(i64 4, ptr %12) #12
  %173 = load i32, ptr %6, align 4
  ret i32 %173
}