; Function Attrs: nounwind uwtable
define i32 @Ifd_ManOper(ptr noundef captures(none) %0, i32 noundef %1, i32 noundef %2, i32 noundef %3, i32 noundef %4) local_unnamed_addr #5 {
  switch i32 %4, label %38 [
    i32 1, label %6
    i32 2, label %14
    i32 3, label %32
  ]

6:                                                ; preds = %5
  %7 = icmp eq i32 %1, 0
  %8 = icmp eq i32 %2, 0
  %or.cond = or i1 %7, %8
  br i1 %or.cond, label %67, label %9

9:                                                ; preds = %6
  %10 = icmp eq i32 %1, 1
  %11 = icmp eq i32 %2, 1
  %or.cond3 = or i1 %10, %11
  br i1 %or.cond3, label %12, label %38

12:                                               ; preds = %9
  %13 = select i1 %10, i32 %2, i32 %1
  br label %67

14:                                               ; preds = %5
  %15 = icmp slt i32 %1, 2
  br i1 %15, label %16, label %20

16:                                               ; preds = %14
  %17 = icmp eq i32 %1, 1
  %18 = zext i1 %17 to i32
  %19 = xor i32 %2, %18
  br label %67

20:                                               ; preds = %14
  %21 = icmp slt i32 %2, 2
  br i1 %21, label %22, label %26

22:                                               ; preds = %20
  %23 = icmp eq i32 %2, 1
  %24 = zext i1 %23 to i32
  %25 = xor i32 %1, %24
  br label %67

26:                                               ; preds = %20
  %27 = and i32 %1, 1
  %spec.select = and i32 %1, 2147483646
  %28 = and i32 %2, 1
  %.not83 = icmp eq i32 %28, 0
  br i1 %.not83, label %38, label %29

29:                                               ; preds = %26
  %30 = xor i32 %27, 1
  %31 = and i32 %2, 2147483646
  br label %38

32:                                               ; preds = %5
  %33 = and i32 %3, 1
  %.not = icmp eq i32 %33, 0
  %.172 = and i32 %3, -2
  %.168 = select i1 %.not, i32 %2, i32 %1
  %.2 = select i1 %.not, i32 %1, i32 %2
  %34 = and i32 %.168, 1
  %.067 = and i32 %.168, -2
  %.065 = xor i32 %34, %.2
  %35 = tail call i32 @Ifd_ManHashFindOrAdd(ptr noundef %0, i32 noundef %.065, i32 noundef %.067, i32 noundef %.172, i32 noundef 3)
  %36 = shl nsw i32 %35, 1
  %37 = or disjoint i32 %36, %34
  br label %67

38:                                               ; preds = %5, %29, %26, %9
  %.067.ph = phi i32 [ %2, %5 ], [ %2, %26 ], [ %31, %29 ], [ %2, %9 ]
  %.065.ph = phi i32 [ %1, %5 ], [ %spec.select, %26 ], [ %spec.select, %29 ], [ %1, %9 ]
  %.064.ph = phi i32 [ 0, %5 ], [ %27, %26 ], [ %30, %29 ], [ 0, %9 ]
  %39 = getelementptr inbounds nuw i8, ptr %0, i64 64
  %40 = load ptr, ptr %39, align 8, !tbaa !38
  %41 = getelementptr inbounds nuw i8, ptr %40, i64 4
  store i32 0, ptr %41, align 4, !tbaa !18
  tail call void @Ifd_ManOperSuper_rec(ptr noundef %0, i32 noundef %.065.ph, i32 noundef %4, ptr noundef %40)
  %42 = load ptr, ptr %39, align 8, !tbaa !38
  tail call void @Ifd_ManOperSuper_rec(ptr noundef %0, i32 noundef %.067.ph, i32 noundef %4, ptr noundef %42)
  %43 = load ptr, ptr %39, align 8, !tbaa !38
  %44 = getelementptr inbounds nuw i8, ptr %43, i64 8
  %45 = load ptr, ptr %44, align 8, !tbaa !22
  %46 = getelementptr inbounds nuw i8, ptr %43, i64 4
  %47 = load i32, ptr %46, align 4, !tbaa !18
  %48 = sext i32 %47 to i64
  tail call void @qsort(ptr noundef %45, i64 noundef %48, i64 noundef 4, ptr noundef nonnull @Vec_IntSortCompare2) #28
  %49 = load ptr, ptr %39, align 8, !tbaa !38
  %50 = getelementptr i8, ptr %49, i64 8
  %.val85 = load ptr, ptr %50, align 8, !tbaa !22
  %51 = load i32, ptr %.val85, align 4, !tbaa !37
  %52 = getelementptr i8, ptr %49, i64 4
  %.val94 = load i32, ptr %52, align 4, !tbaa !18
  %53 = icmp sgt i32 %.val94, 1
  br i1 %53, label %.lr.ph, label %.critedge

.lr.ph:                                           ; preds = %38, %.lr.ph
  %indvars.iv = phi i64 [ %indvars.iv.next, %.lr.ph ], [ 1, %38 ]
  %54 = phi ptr [ %60, %.lr.ph ], [ %49, %38 ]
  %.06996 = phi i32 [ %59, %.lr.ph ], [ %51, %38 ]
  %55 = getelementptr i8, ptr %54, i64 8
  %.val84 = load ptr, ptr %55, align 8, !tbaa !22
  %56 = getelementptr inbounds nuw i32, ptr %.val84, i64 %indvars.iv
  %57 = load i32, ptr %56, align 4, !tbaa !37
  %58 = tail call i32 @Ifd_ManHashFindOrAdd(ptr noundef nonnull %0, i32 noundef %.06996, i32 noundef %57, i32 noundef -1, i32 noundef %4)
  %59 = shl nsw i32 %58, 1
  %indvars.iv.next = add nuw nsw i64 %indvars.iv, 1
  %60 = load ptr, ptr %39, align 8, !tbaa !38
  %61 = getelementptr i8, ptr %60, i64 4
  %.val = load i32, ptr %61, align 4, !tbaa !18
  %62 = sext i32 %.val to i64
  %63 = icmp slt i64 %indvars.iv.next, %62
  br i1 %63, label %.lr.ph, label %.critedge, !llvm.loop !67

.critedge:                                        ; preds = %.lr.ph, %38
  %.069.lcssa = phi i32 [ %51, %38 ], [ %59, %.lr.ph ]
  %64 = icmp sgt i32 %.064.ph, 0
  %65 = zext i1 %64 to i32
  %66 = xor i32 %.069.lcssa, %65
  br label %67

67:                                               ; preds = %6, %.critedge, %32, %22, %16, %12
  %.0 = phi i32 [ %13, %12 ], [ %37, %32 ], [ %66, %.critedge ], [ %19, %16 ], [ %25, %22 ], [ 0, %6 ]
  ret i32 %.0
}